target datalayout = "e-m:e-p270:32:32-p271:32:32-p272:64:64-i64:64-i128:128-f80:128-n8:16:32:64-S128"
target triple = "x86_64-pc-linux-gnu"

%"struct.duckdb_brotli::ManagedDictionary" = type { i32, %"struct.duckdb_brotli::MemoryManager", ptr }
%"struct.duckdb_brotli::MemoryManager" = type { ptr, ptr, ptr }

; Function Attrs: mustprogress uwtable
define void @_ZN13duckdb_brotli30BrotliDestroyManagedDictionaryEPNS_17ManagedDictionaryE(ptr noundef %0) #0 {
  %2 = alloca ptr, align 8
  store ptr %0, ptr %2, align 8, !tbaa !63
  %3 = load ptr, ptr %2, align 8, !tbaa !63
  %4 = icmp ne ptr %3, null
  br i1 %4, label %6, label %5

5:                                                ; preds = %1
  br label %10

6:                                                ; preds = %1
  %7 = load ptr, ptr %2, align 8, !tbaa !63
  %8 = load ptr, ptr %2, align 8, !tbaa !63
  %9 = getelementptr inbounds nuw %"struct.duckdb_brotli::ManagedDictionary", ptr %8, i32 0, i32 1
  call void @_ZN13duckdb_brotli19BrotliBootstrapFreeEPvPNS_13MemoryManagerE(ptr noundef %7, ptr noundef %9)
  br label %10

10:                                               ; preds = %6, %5
  ret void
}