; Function Attrs: mustprogress uwtable
define void @_ZN13duckdb_brotli30BrotliDestroyManagedDictionaryEPNS_17ManagedDictionaryE(ptr noundef %0) local_unnamed_addr #0 {
  %.not = icmp eq ptr %0, null
  br i1 %.not, label %4, label %2

2:                                                ; preds = %1
  %3 = getelementptr inbounds nuw i8, ptr %0, i64 8
  tail call void @_ZN13duckdb_brotli19BrotliBootstrapFreeEPvPNS_13MemoryManagerE(ptr noundef nonnull %0, ptr noundef nonnull %3)
  br label %4

4:                                                ; preds = %1, %2
  ret void
}